target datalayout = "e-m:e-p270:32:32-p271:32:32-p272:64:64-i64:64-i128:128-f80:128-n8:16:32:64-S128"
target triple = "x86_64-pc-linux-gnu"

@proto_register_ldss.ett = internal global [3 x ptr] [ptr @ett_ldss_broadcast, ptr @ett_ldss_transfer, ptr @ett_ldss_transfer_req], align 16
@.str.58 = private unnamed_addr constant [31 x i8] c"Local Download Sharing Service\00", align 1
@.str.59 = private unnamed_addr constant [5 x i8] c"LDSS\00", align 1
@.str.60 = private unnamed_addr constant [5 x i8] c"ldss\00", align 1
@proto_ldss = internal global i32 0, align 4
@ldss_udp_handle = internal global ptr null, align 8
@.str.61 = private unnamed_addr constant [14 x i8] c"ldss_transfer\00", align 1
@ldss_tcp_handle = internal global ptr null, align 8

; Function Attrs: null_pointer_is_valid sspstrong uwtable
define hidden void @proto_register_ldss() #0 {
  %1 = alloca ptr, align 8
  call void @llvm.lifetime.start.p0(i64 8, ptr %1) #13
  %2 = call i32 @proto_register_protocol(ptr noundef @.str.58, ptr noundef @.str.59, ptr noundef @.str.60)
  store i32 %2, ptr @proto_ldss, align 4
  %3 = load i32, ptr @proto_ldss, align 4
  call void @proto_register_field_array(i32 noundef %3, ptr noundef @proto_register_ldss.hf, i32 noundef 21)
  call void @proto_register_subtree_array(ptr noundef @proto_register_ldss.ett, i32 noundef 3)
  %4 = load i32, ptr @proto_ldss, align 4
  %5 = call ptr @expert_register_protocol(i32 noundef %4)
  store ptr %5, ptr %1, align 8
  %6 = load ptr, ptr %1, align 8
  call void @expert_register_field_array(ptr noundef %6, ptr noundef @proto_register_ldss.ei, i32 noundef 1)
  %7 = load i32, ptr @proto_ldss, align 4
  %8 = call ptr @register_dissector(ptr noundef @.str.60, ptr noundef @dissect_ldss, i32 noundef %7)
  store ptr %8, ptr @ldss_udp_handle, align 8
  %9 = load i32, ptr @proto_ldss, align 4
  %10 = call ptr @register_dissector(ptr noundef @.str.61, ptr noundef @dissect_ldss_transfer, i32 noundef %9)
  store ptr %10, ptr @ldss_tcp_handle, align 8
  call void @llvm.lifetime.end.p0(i64 8, ptr %1) #13
  ret void
}